Certificate:
    Data:
        Version: 3 (0x2)
        Serial Number: 1 (0x1)
    Signature Algorithm: sha256WithRSAEncryption
        Issuer: C=US, ST=Unset, L=Unset, O=Unset, CN=172.255.200.20
        Validity
            Not Before: May 14 17:50:16 2020 GMT
            Not After : May 12 17:50:16 2030 GMT
        Subject: C=US, ST=Unset, O=Unset, CN=172.255.200.20
        Subject Public Key Info:
            Public Key Algorithm: rsaEncryption
                Public-Key: (2048 bit)
                Modulus:
                    00:95:78:34:24:ce:13:d0:4a:ad:f0:55:a6:a6:11:
                    c7:47:df:1d:76:96:e2:0e:cf:35:38:ff:fb:21:d6:
                    be:71:b4:87:85:a9:26:89:df:48:f4:30:24:18:15:
                    df:eb:b4:d9:99:83:15:d9:91:27:77:6a:ca:90:38:
                    8a:cd:b3:82:77:f0:8e:84:66:61:06:59:06:3e:5a:
                    4a:06:ac:0b:14:dc:56:18:4a:22:2a:5b:f4:06:ef:
                    34:a7:5f:be:6c:fe:df:17:06:fd:e0:4a:39:86:b8:
                    42:55:64:67:23:f6:ea:48:ca:fb:e3:b1:ad:24:5d:
                    cd:5e:06:06:57:88:6f:2e:d7:13:1c:f4:54:98:89:
                    94:e1:9c:7e:e2:24:c1:76:b4:a2:33:c4:f2:b9:22:
                    cc:ac:8e:b3:71:be:c1:53:9d:c7:ef:7d:b2:5e:f6:
                    7e:6f:b1:73:34:d9:26:e8:72:31:f8:05:15:df:18:
                    1f:b3:b3:fc:fb:cc:1a:25:a2:ba:40:aa:4d:e8:29:
                    33:e8:8d:82:41:82:4b:3c:2b:28:cd:61:35:61:03:
                    8c:5d:30:04:9f:f8:95:05:e6:8a:87:05:dc:b1:cc:
                    ba:47:9c:f9:38:1d:d2:d1:8b:ab:0c:ed:43:26:80:
                    eb:98:e1:12:a8:f0:6e:10:4d:6e:a0:a6:44:cd:61:
                    b4:8d
                Exponent: 65537 (0x10001)
        X509v3 extensions:
            X509v3 Basic Constraints: 
                CA:FALSE
            X509v3 Key Usage: 
                Digital Signature, Non Repudiation, Key Encipherment
            X509v3 Subject Alternative Name: 
                IP Address:127.0.0.1, DNS:localhost, IP Address:172.255.200.20, IP Address:10.43.176.176
    Signature Algorithm: sha256WithRSAEncryption
         ab:f8:3a:e1:68:6a:c4:21:2e:b9:b4:21:8e:d6:13:14:fa:93:
         62:88:cb:45:b3:3e:46:ec:0e:74:34:86:d1:35:2a:51:1a:91:
         23:92:ad:79:1b:89:6b:96:11:70:12:5c:88:85:37:48:33:2d:
         a0:8f:90:02:49:4c:e3:55:1c:ae:25:6d:87:dd:22:af:7e:f0:
         5a:83:7c:1d:06:15:3b:56:d3:a1:8c:10:89:34:26:ed:21:ad:
         f6:4d:ae:ee:22:ba:65:8b:04:6e:6e:72:a6:1a:09:a0:33:dc:
         7b:4b:66:f8:ee:dc:5e:b8:72:8b:ea:d6:43:22:f3:6d:9f:7a:
         12:5f:97:93:4d:c2:a3:b4:2c:74:a9:0d:69:b7:d2:fe:c3:60:
         51:a6:38:e2:c5:16:b1:df:d1:5e:20:f7:12:78:6c:42:27:89:
         db:ad:55:0a:3f:8a:fb:0e:3f:47:92:26:7f:4c:f1:6b:0a:11:
         13:0d:69:96:35:72:82:e5:36:76:62:33:65:49:05:78:22:b7:
         56:d6:ca:8d:2f:6a:dd:44:98:2e:fc:c0:87:85:33:14:01:66:
         6e:53:e6:74:58:33:c0:f4:89:9d:5c:d5:71:7f:71:9e:56:e6:
         78:9b:c1:f8:60:ce:3a:67:ef:c3:9d:52:ed:a4:f1:67:bc:31:
         54:9f:70:02
-----BEGIN CERTIFICATE-----
MIIDWTCCAkGgAwIBAgIBATANBgkqhkiG9w0BAQsFADBWMQswCQYDVQQGEwJVUzEO
MAwGA1UECAwFVW5zZXQxDjAMBgNVBAcMBVVuc2V0MQ4wDAYDVQQKDAVVbnNldDEX
MBUGA1UEAwwOMTcyLjI1NS4yMDAuMjAwHhcNMjAwNTE0MTc1MDE2WhcNMzAwNTEy
MTc1MDE2WjBGMQswCQYDVQQGEwJVUzEOMAwGA1UECAwFVW5zZXQxDjAMBgNVBAoM
BVVuc2V0MRcwFQYDVQQDDA4xNzIuMjU1LjIwMC4yMDCCASIwDQYJKoZIhvcNAQEB
BQADggEPADCCAQoCggEBAJV4NCTOE9BKrfBVpqYRx0ffHXaW4g7PNTj/+yHWvnG0
h4WpJonfSPQwJBgV3+u02ZmDFdmRJ3dqypA4is2zgnfwjoRmYQZZBj5aSgasCxTc
VhhKIipb9AbvNKdfvmz+3xcG/eBKOYa4QlVkZyP26kjK++OxrSRdzV4GBleIby7X
Exz0VJiJlOGcfuIkwXa0ojPE8rkizKyOs3G+wVOdx+99sl72fm+xczTZJuhyMfgF
Fd8YH7Oz/PvMGiWiukCqTegpM+iNgkGCSzwrKM1hNWEDjF0wBJ/4lQXmiocF3LHM
ukec+Tgd0tGLqwztQyaA65jhEqjwbhBNbqCmRM1htI0CAwEAAaNCMEAwCQYDVR0T
BAIwADALBgNVHQ8EBAMCBeAwJgYDVR0RBB8wHYcEfwAAAYIJbG9jYWxob3N0hwSs
/8gUhwQKK7CwMA0GCSqGSIb3DQEBCwUAA4IBAQCr+DrhaGrEIS65tCGO1hMU+pNi
iMtFsz5G7A50NIbRNSpRGpEjkq15G4lrlhFwElyIhTdIMy2gj5ACSUzjVRyuJW2H
3SKvfvBag3wdBhU7VtOhjBCJNCbtIa32Ta7uIrpliwRubnKmGgmgM9x7S2b47txe
uHKL6tZDIvNtn3oSX5eTTcKjtCx0qQ1pt9L+w2BRpjjixRax39FeIPcSeGxCJ4nb
rVUKP4r7Dj9HkiZ/TPFrChETDWmWNXKC5TZ2YjNlSQV4IrdW1sqNL2rdRJgu/MCH
hTMUAWZuU+Z0WDPA9ImdXNVxf3GeVuZ4m8H4YM46Z+/DnVLtpPFnvDFUn3AC
-----END CERTIFICATE-----